target datalayout = "e-m:e-p270:32:32-p271:32:32-p272:64:64-i64:64-i128:128-f80:128-n8:16:32:64-S128"
target triple = "x86_64-pc-linux-gnu"

@color_filter_list = internal global ptr null, align 8
@color_filter_deleted_list = internal global ptr null, align 8
@color_filter_valid_list = internal global ptr null, align 8

; Function Attrs: null_pointer_is_valid sspstrong uwtable
define internal ptr @color_filter_list_clone(ptr noundef %0) #0 {
  %2 = alloca ptr, align 8
  %3 = alloca ptr, align 8
  store ptr %0, ptr %2, align 8
  call void @llvm.lifetime.start.p0(i64 8, ptr %3) #13
  store ptr null, ptr %3, align 8
  %4 = load ptr, ptr %2, align 8
  call void @g_slist_foreach(ptr noundef %4, ptr noundef @color_filter_list_clone_cb, ptr noundef %3)
  %5 = load ptr, ptr %3, align 8
  call void @llvm.lifetime.end.p0(i64 8, ptr %3) #13
  ret ptr %5
}

; Function Attrs: null_pointer_is_valid sspstrong uwtable
define void @color_filter_list_delete(ptr noundef %0) #0 {
  %2 = alloca ptr, align 8
  store ptr %0, ptr %2, align 8
  %3 = load ptr, ptr %2, align 8
  %4 = load ptr, ptr %3, align 8
  call void @g_slist_free_full(ptr noundef %4, ptr noundef @color_filter_delete_cb)
  %5 = load ptr, ptr %2, align 8
  store ptr null, ptr %5, align 8
  ret void
}

; Function Attrs: null_pointer_is_valid sspstrong uwtable
define zeroext i1 @color_filters_apply(ptr noundef %0, ptr noundef %1, ptr noundef %2) #0 {
  %4 = alloca ptr, align 8
  %5 = alloca ptr, align 8
  %6 = alloca ptr, align 8
  %7 = alloca i8, align 1
  store ptr %0, ptr %4, align 8
  store ptr %1, ptr %5, align 8
  store ptr %2, ptr %6, align 8
  call void @llvm.lifetime.start.p0(i64 1, ptr %7) #13
  store i8 1, ptr %7, align 1
  %8 = load ptr, ptr %6, align 8
  store ptr null, ptr %8, align 8
  %9 = load ptr, ptr @color_filter_deleted_list, align 8
  %10 = load ptr, ptr @color_filter_list, align 8
  %11 = call ptr @g_slist_concat(ptr noundef %9, ptr noundef %10)
  store ptr %11, ptr @color_filter_deleted_list, align 8
  store ptr null, ptr @color_filter_list, align 8
  call void @color_filter_list_delete(ptr noundef @color_filter_valid_list)
  %12 = load ptr, ptr %4, align 8
  %13 = call ptr @color_filter_list_clone(ptr noundef %12)
  store ptr %13, ptr @color_filter_valid_list, align 8
  %14 = load ptr, ptr @color_filter_valid_list, align 8
  %15 = load ptr, ptr %5, align 8
  %16 = call ptr @color_filter_list_clone(ptr noundef %15)
  %17 = call ptr @g_slist_concat(ptr noundef %14, ptr noundef %16)
  store ptr %17, ptr @color_filter_valid_list, align 8
  %18 = load ptr, ptr @color_filter_valid_list, align 8
  %19 = load ptr, ptr %6, align 8
  call void @g_slist_foreach(ptr noundef %18, ptr noundef @color_filter_validate_cb, ptr noundef %19)
  %20 = load ptr, ptr %6, align 8
  %21 = load ptr, ptr %20, align 8
  %22 = icmp ne ptr %21, null
  br i1 %22, label %23, label %24

23:                                               ; preds = %3
  store i8 0, ptr %7, align 1
  br label %24

24:                                               ; preds = %23, %3
  %25 = load ptr, ptr @color_filter_valid_list, align 8
  %26 = call ptr @color_filter_list_clone(ptr noundef %25)
  store ptr %26, ptr @color_filter_list, align 8
  %27 = load ptr, ptr @color_filter_list, align 8
  %28 = load ptr, ptr %6, align 8
  call void @g_slist_foreach(ptr noundef %27, ptr noundef @color_filter_compile_cb, ptr noundef %28)
  %29 = load ptr, ptr %6, align 8
  %30 = load ptr, ptr %29, align 8
  %31 = icmp ne ptr %30, null
  br i1 %31, label %32, label %33

32:                                               ; preds = %24
  store i8 0, ptr %7, align 1
  br label %33

33:                                               ; preds = %32, %24
  %34 = load i8, ptr %7, align 1, !range !6, !noundef !7
  %35 = trunc i8 %34 to i1
  call void @llvm.lifetime.end.p0(i64 1, ptr %7) #13
  ret i1 %35
}