; Function Attrs: null_pointer_is_valid sspstrong uwtable
define zeroext i1 @color_filters_apply(ptr noundef %0, ptr noundef %1, ptr noundef initializes((0, 8)) %2) local_unnamed_addr #0 {
  %4 = alloca ptr, align 8
  %5 = alloca ptr, align 8
  %6 = alloca ptr, align 8
  store ptr null, ptr %2, align 8
  %7 = load ptr, ptr @color_filter_deleted_list, align 8
  %8 = load ptr, ptr @color_filter_list, align 8
  %9 = tail call ptr @g_slist_concat(ptr noundef %7, ptr noundef %8)
  store ptr %9, ptr @color_filter_deleted_list, align 8
  store ptr null, ptr @color_filter_list, align 8
  %10 = load ptr, ptr @color_filter_valid_list, align 8
  tail call void @g_slist_free_full(ptr noundef %10, ptr noundef nonnull @color_filter_delete_cb)
  store ptr null, ptr @color_filter_valid_list, align 8
  call void @llvm.lifetime.start.p0(i64 8, ptr nonnull %6) #14
  store ptr null, ptr %6, align 8
  call void @g_slist_foreach(ptr noundef %0, ptr noundef nonnull @color_filter_list_clone_cb, ptr noundef nonnull %6)
  %11 = load ptr, ptr %6, align 8
  call void @llvm.lifetime.end.p0(i64 8, ptr nonnull %6) #14
  store ptr %11, ptr @color_filter_valid_list, align 8
  call void @llvm.lifetime.start.p0(i64 8, ptr nonnull %5) #14
  store ptr null, ptr %5, align 8
  call void @g_slist_foreach(ptr noundef %1, ptr noundef nonnull @color_filter_list_clone_cb, ptr noundef nonnull %5)
  %12 = load ptr, ptr %5, align 8
  call void @llvm.lifetime.end.p0(i64 8, ptr nonnull %5) #14
  %13 = call ptr @g_slist_concat(ptr noundef %11, ptr noundef %12)
  store ptr %13, ptr @color_filter_valid_list, align 8
  call void @g_slist_foreach(ptr noundef %13, ptr noundef nonnull @color_filter_validate_cb, ptr noundef %2)
  %14 = load ptr, ptr %2, align 8
  %.not = icmp eq ptr %14, null
  %15 = load ptr, ptr @color_filter_valid_list, align 8
  call void @llvm.lifetime.start.p0(i64 8, ptr nonnull %4) #14
  store ptr null, ptr %4, align 8
  call void @g_slist_foreach(ptr noundef %15, ptr noundef nonnull @color_filter_list_clone_cb, ptr noundef nonnull %4)
  %16 = load ptr, ptr %4, align 8
  call void @llvm.lifetime.end.p0(i64 8, ptr nonnull %4) #14
  store ptr %16, ptr @color_filter_list, align 8
  call void @g_slist_foreach(ptr noundef %16, ptr noundef nonnull @color_filter_compile_cb, ptr noundef %2)
  %17 = load ptr, ptr %2, align 8
  %.not7 = icmp eq ptr %17, null
  %.1 = select i1 %.not7, i1 %.not, i1 false
  ret i1 %.1
}